target datalayout = "e-m:e-p270:32:32-p271:32:32-p272:64:64-i64:64-i128:128-f80:128-n8:16:32:64-S128"
target triple = "x86_64-pc-linux-gnu"

%class.MachNode = type { %class.Node.base, i8, i16, ptr }
%class.Node.base = type <{ ptr, ptr, ptr, i32, i32, i32, i32, i32, i32, i32 }>
%class.Type = type <{ ptr, ptr, i32, [4 x i8] }>
%class.Type.base = type <{ ptr, ptr, i32 }>
%class.ReallocMark = type { i8 }
%class.TypeTuple = type { %class.Type.base, i32, ptr }
%class.MachReturnNode = type { %class.MachNode, ptr, %class.ReallocMark, ptr }
%class.MachCallNode = type <{ %class.MachSafePointNode.base, [3 x i8], ptr, ptr, float, i8, [3 x i8] }>
%class.MachSafePointNode.base = type <{ %class.MachReturnNode, ptr, ptr, i32, i8 }>
%class.TypeFunc = type { %class.Type.base, ptr, ptr }

; Function Attrs: mustprogress nounwind uwtable
define linkonce_odr hidden noundef ptr @_ZNK4Type7isa_ptrEv(ptr noundef nonnull align 8 dereferenceable(20) %0) #1 comdat align 2 {
  %2 = alloca ptr, align 8
  store ptr %0, ptr %2, align 8
  %3 = load ptr, ptr %2, align 8
  %4 = getelementptr inbounds %class.Type, ptr %3, i32 0, i32 2
  %5 = load i32, ptr %4, align 8
  %6 = icmp sge i32 %5, 18
  br i1 %6, label %7, label %12

7:                                                ; preds = %1
  %8 = getelementptr inbounds %class.Type, ptr %3, i32 0, i32 2
  %9 = load i32, ptr %8, align 8
  %10 = icmp sle i32 %9, 26
  br i1 %10, label %11, label %12

11:                                               ; preds = %7
  br label %13

12:                                               ; preds = %7, %1
  br label %13

13:                                               ; preds = %12, %11
  %14 = phi ptr [ %3, %11 ], [ null, %12 ]
  ret ptr %14
}

; Function Attrs: mustprogress nounwind uwtable
define linkonce_odr hidden noundef ptr @_ZNK9TypeTuple8field_atEj(ptr noundef nonnull align 8 dereferenceable(32) %0, i32 noundef %1) #1 comdat align 2 {
  %3 = alloca ptr, align 8
  %4 = alloca i32, align 4
  store ptr %0, ptr %3, align 8
  store i32 %1, ptr %4, align 4
  %5 = load ptr, ptr %3, align 8
  %6 = getelementptr inbounds %class.TypeTuple, ptr %5, i32 0, i32 2
  %7 = load ptr, ptr %6, align 8
  %8 = load i32, ptr %4, align 4
  %9 = zext i32 %8 to i64
  %10 = getelementptr inbounds ptr, ptr %7, i64 %9
  %11 = load ptr, ptr %10, align 8
  ret ptr %11
}

; Function Attrs: mustprogress nounwind uwtable
define linkonce_odr hidden noundef i32 @_ZNK9TypeTuple3cntEv(ptr noundef nonnull align 8 dereferenceable(32) %0) #1 comdat align 2 {
  %2 = alloca ptr, align 8
  store ptr %0, ptr %2, align 8
  %3 = load ptr, ptr %2, align 8
  %4 = getelementptr inbounds %class.TypeTuple, ptr %3, i32 0, i32 1
  %5 = load i32, ptr %4, align 4
  ret i32 %5
}

; Function Attrs: mustprogress nounwind uwtable
define linkonce_odr hidden noundef ptr @_ZNK8TypeFunc5rangeEv(ptr noundef nonnull align 8 dereferenceable(40) %0) #1 comdat align 2 {
  %2 = alloca ptr, align 8
  store ptr %0, ptr %2, align 8
  %3 = load ptr, ptr %2, align 8
  %4 = getelementptr inbounds %class.TypeFunc, ptr %3, i32 0, i32 2
  %5 = load ptr, ptr %4, align 8
  ret ptr %5
}

; Function Attrs: mustprogress nounwind uwtable
define linkonce_odr hidden noundef ptr @_ZNK12MachCallNode2tfEv(ptr noundef nonnull align 8 dereferenceable(133) %0) #1 comdat align 2 {
  %2 = alloca ptr, align 8
  store ptr %0, ptr %2, align 8
  %3 = load ptr, ptr %2, align 8
  %4 = getelementptr inbounds %class.MachCallNode, ptr %3, i32 0, i32 2
  %5 = load ptr, ptr %4, align 8
  ret ptr %5
}

; Function Attrs: mustprogress nounwind uwtable
define hidden noundef zeroext i1 @_ZNK12MachCallNode15returns_pointerEv(ptr noundef nonnull align 8 dereferenceable(133) %0) #1 align 2 {
  %2 = alloca ptr, align 8
  %3 = alloca ptr, align 8
  store ptr %0, ptr %2, align 8
  %4 = load ptr, ptr %2, align 8
  %5 = call noundef ptr @_ZNK12MachCallNode2tfEv(ptr noundef nonnull align 8 dereferenceable(133) %4)
  %6 = call noundef ptr @_ZNK8TypeFunc5rangeEv(ptr noundef nonnull align 8 dereferenceable(40) %5)
  store ptr %6, ptr %3, align 8
  %7 = load ptr, ptr %3, align 8
  %8 = call noundef i32 @_ZNK9TypeTuple3cntEv(ptr noundef nonnull align 8 dereferenceable(32) %7)
  %9 = icmp ugt i32 %8, 5
  br i1 %9, label %10, label %15

10:                                               ; preds = %1
  %11 = load ptr, ptr %3, align 8
  %12 = call noundef ptr @_ZNK9TypeTuple8field_atEj(ptr noundef nonnull align 8 dereferenceable(32) %11, i32 noundef 5)
  %13 = call noundef ptr @_ZNK4Type7isa_ptrEv(ptr noundef nonnull align 8 dereferenceable(20) %12)
  %14 = icmp ne ptr %13, null
  br label %15

15:                                               ; preds = %10, %1
  %16 = phi i1 [ false, %1 ], [ %14, %10 ]
  ret i1 %16
}