; Function Attrs: mustprogress nofree norecurse nosync nounwind willreturn memory(read, inaccessiblemem: none) uwtable
define hidden noundef zeroext i1 @_ZNK12MachCallNode15returns_pointerEv(ptr nocapture noundef nonnull readonly align 8 dereferenceable(133) %0) local_unnamed_addr #0 align 2 {
  %2 = getelementptr inbounds i8, ptr %0, i64 112
  %3 = load ptr, ptr %2, align 8
  %4 = getelementptr inbounds i8, ptr %3, i64 32
  %5 = load ptr, ptr %4, align 8
  %6 = getelementptr inbounds i8, ptr %5, i64 20
  %7 = load i32, ptr %6, align 4
  %8 = icmp ugt i32 %7, 5
  br i1 %8, label %9, label %19

9:                                                ; preds = %1
  %10 = getelementptr inbounds i8, ptr %5, i64 24
  %11 = load ptr, ptr %10, align 8
  %12 = getelementptr inbounds i8, ptr %11, i64 40
  %13 = load ptr, ptr %12, align 8
  %14 = getelementptr inbounds i8, ptr %13, i64 16
  %15 = load i32, ptr %14, align 8
  %16 = add i32 %15, -18
  %or.cond.i = icmp ult i32 %16, 9
  %17 = icmp ne ptr %13, null
  %18 = and i1 %17, %or.cond.i
  br label %19

19:                                               ; preds = %9, %1
  %20 = phi i1 [ false, %1 ], [ %18, %9 ]
  ret i1 %20
}